
G:\Projects\Mettle\.tmp\bench-asm\matrix_mul_mettle.obj:     file format pei-x86-64


Disassembly of section .text:

0000000140001000 <.text>:
   140001000:	48 83 ec 28          	sub    rsp,0x28
   140001004:	e8 97 08 00 00       	call   0x1400018a0
   140001009:	89 c1                	mov    ecx,eax
   14000100b:	e8 10 15 00 00       	call   0x140002520
   140001010:	55                   	push   rbp
   140001011:	48 8b ec             	mov    rbp,rsp
   140001014:	48 83 ec 10          	sub    rsp,0x10
   140001018:	48 89 4d f8          	mov    QWORD PTR [rbp-0x8],rcx
   14000101c:	48 8b 45 f8          	mov    rax,QWORD PTR [rbp-0x8]
   140001020:	48 8b 40 00          	mov    rax,QWORD PTR [rax+0x0]
   140001024:	48 89 45 f0          	mov    QWORD PTR [rbp-0x10],rax
   140001028:	48 8b 45 f0          	mov    rax,QWORD PTR [rbp-0x10]
   14000102c:	e9 00 00 00 00       	jmp    0x140001031
   140001031:	48 8b e5             	mov    rsp,rbp
   140001034:	5d                   	pop    rbp
   140001035:	c3                   	ret
   140001036:	90                   	nop
   140001037:	90                   	nop
   140001038:	90                   	nop
   140001039:	90                   	nop
   14000103a:	90                   	nop
   14000103b:	90                   	nop
   14000103c:	90                   	nop
   14000103d:	90                   	nop
   14000103e:	90                   	nop
   14000103f:	90                   	nop
   140001040:	55                   	push   rbp
   140001041:	48 8b ec             	mov    rbp,rsp
   140001044:	48 83 ec 20          	sub    rsp,0x20
   140001048:	48 89 4d f8          	mov    QWORD PTR [rbp-0x8],rcx
   14000104c:	48 83 ec 20          	sub    rsp,0x20
   140001050:	b9 01 00 00 00       	mov    ecx,0x1
   140001055:	e8 76 15 00 00       	call   0x1400025d0
   14000105a:	48 83 c4 20          	add    rsp,0x20
   14000105e:	48 89 45 f0          	mov    QWORD PTR [rbp-0x10],rax
   140001062:	48 83 ec 20          	sub    rsp,0x20
   140001066:	48 8b 4d f8          	mov    rcx,QWORD PTR [rbp-0x8]
   14000106a:	48 8b 55 f0          	mov    rdx,QWORD PTR [rbp-0x10]
   14000106e:	e8 2d 15 00 00       	call   0x1400025a0
   140001073:	48 83 c4 20          	add    rsp,0x20
   140001077:	48 89 45 e8          	mov    QWORD PTR [rbp-0x18],rax
   14000107b:	e9 00 00 00 00       	jmp    0x140001080
   140001080:	48 8b e5             	mov    rsp,rbp
   140001083:	5d                   	pop    rbp
   140001084:	c3                   	ret
   140001085:	90                   	nop
   140001086:	90                   	nop
   140001087:	90                   	nop
   140001088:	90                   	nop
   140001089:	90                   	nop
   14000108a:	90                   	nop
   14000108b:	90                   	nop
   14000108c:	90                   	nop
   14000108d:	90                   	nop
   14000108e:	90                   	nop
   14000108f:	90                   	nop
   140001090:	55                   	push   rbp
   140001091:	48 8b ec             	mov    rbp,rsp
   140001094:	48 83 ec 10          	sub    rsp,0x10
   140001098:	48 89 4d f8          	mov    QWORD PTR [rbp-0x8],rcx
   14000109c:	48 83 ec 20          	sub    rsp,0x20
   1400010a0:	48 8b 4d f8          	mov    rcx,QWORD PTR [rbp-0x8]
   1400010a4:	e8 87 14 00 00       	call   0x140002530
   1400010a9:	48 83 c4 20          	add    rsp,0x20
   1400010ad:	48 89 45 f0          	mov    QWORD PTR [rbp-0x10],rax
   1400010b1:	e9 00 00 00 00       	jmp    0x1400010b6
   1400010b6:	48 8b e5             	mov    rsp,rbp
   1400010b9:	5d                   	pop    rbp
   1400010ba:	c3                   	ret
   1400010bb:	90                   	nop
   1400010bc:	90                   	nop
   1400010bd:	90                   	nop
   1400010be:	90                   	nop
   1400010bf:	90                   	nop
   1400010c0:	55                   	push   rbp
   1400010c1:	48 8b ec             	mov    rbp,rsp
   1400010c4:	48 83 ec 10          	sub    rsp,0x10
   1400010c8:	48 83 ec 20          	sub    rsp,0x20
   1400010cc:	b9 0a 00 00 00       	mov    ecx,0xa
   1400010d1:	e8 6a 14 00 00       	call   0x140002540
   1400010d6:	48 83 c4 20          	add    rsp,0x20
   1400010da:	48 89 45 f8          	mov    QWORD PTR [rbp-0x8],rax
   1400010de:	e9 00 00 00 00       	jmp    0x1400010e3
   1400010e3:	48 8b e5             	mov    rsp,rbp
   1400010e6:	5d                   	pop    rbp
   1400010e7:	c3                   	ret
   1400010e8:	90                   	nop
   1400010e9:	90                   	nop
   1400010ea:	90                   	nop
   1400010eb:	90                   	nop
   1400010ec:	90                   	nop
   1400010ed:	90                   	nop
   1400010ee:	90                   	nop
   1400010ef:	90                   	nop
   1400010f0:	55                   	push   rbp
   1400010f1:	48 8b ec             	mov    rbp,rsp
   1400010f4:	48 81 ec 00 01 00 00 	sub    rsp,0x100
   1400010fb:	4c 89 a5 10 ff ff ff 	mov    QWORD PTR [rbp-0xf0],r12
   140001102:	4c 89 ad 08 ff ff ff 	mov    QWORD PTR [rbp-0xf8],r13
   140001109:	4c 89 b5 00 ff ff ff 	mov    QWORD PTR [rbp-0x100],r14
   140001110:	4c 8b e1             	mov    r12,rcx
   140001113:	41 bd 15 00 00 00    	mov    r13d,0x15
   140001119:	45 31 f6             	xor    r14d,r14d
   14000111c:	48 8d 45 e2          	lea    rax,[rbp-0x1e]
   140001120:	48 89 45 c8          	mov    QWORD PTR [rbp-0x38],rax
   140001124:	31 c9                	xor    ecx,ecx
   140001126:	48 8b 45 c8          	mov    rax,QWORD PTR [rbp-0x38]
   14000112a:	48 83 c0 15          	add    rax,0x15
   14000112e:	88 48 00             	mov    BYTE PTR [rax+0x0],cl
   140001131:	4d 85 e4             	test   r12,r12
   140001134:	0f 8d 16 00 00 00    	jge    0x140001150
   14000113a:	41 be 01 00 00 00    	mov    r14d,0x1
   140001140:	4d 8b d4             	mov    r10,r12
   140001143:	31 c0                	xor    eax,eax
   140001145:	4c 29 d0             	sub    rax,r10
   140001148:	4c 8b e0             	mov    r12,rax
   14000114b:	e9 00 00 00 00       	jmp    0x140001150
   140001150:	4d 85 e4             	test   r12,r12
   140001153:	0f 85 65 00 00 00    	jne    0x1400011be
   140001159:	48 8d 45 e2          	lea    rax,[rbp-0x1e]
   14000115d:	48 89 45 a8          	mov    QWORD PTR [rbp-0x58],rax
   140001161:	b9 30 00 00 00       	mov    ecx,0x30
   140001166:	48 8b 45 a8          	mov    rax,QWORD PTR [rbp-0x58]
   14000116a:	88 48 00             	mov    BYTE PTR [rax+0x0],cl
   14000116d:	48 8d 45 e2          	lea    rax,[rbp-0x1e]
   140001171:	48 89 45 a0          	mov    QWORD PTR [rbp-0x60],rax
   140001175:	31 c9                	xor    ecx,ecx
   140001177:	48 8b 45 a0          	mov    rax,QWORD PTR [rbp-0x60]
   14000117b:	48 83 c0 01          	add    rax,0x1
   14000117f:	88 48 00             	mov    BYTE PTR [rax+0x0],cl
   140001182:	48 8d 45 e2          	lea    rax,[rbp-0x1e]
   140001186:	48 89 45 90          	mov    QWORD PTR [rbp-0x70],rax
   14000118a:	48 83 ec 20          	sub    rsp,0x20
   14000118e:	b9 01 00 00 00       	mov    ecx,0x1
   140001193:	e8 38 14 00 00       	call   0x1400025d0
   140001198:	48 83 c4 20          	add    rsp,0x20
   14000119c:	48 89 45 88          	mov    QWORD PTR [rbp-0x78],rax
   1400011a0:	48 83 ec 20          	sub    rsp,0x20
   1400011a4:	48 8b 4d 90          	mov    rcx,QWORD PTR [rbp-0x70]
   1400011a8:	48 8b 55 88          	mov    rdx,QWORD PTR [rbp-0x78]
   1400011ac:	e8 ef 13 00 00       	call   0x1400025a0
   1400011b1:	48 83 c4 20          	add    rsp,0x20
   1400011b5:	48 89 45 80          	mov    QWORD PTR [rbp-0x80],rax
   1400011b9:	e9 1b 01 00 00       	jmp    0x1400012d9
   1400011be:	4d 85 e4             	test   r12,r12
   1400011c1:	0f 8e 7c 00 00 00    	jle    0x140001243
   1400011c7:	49 83 ed 01          	sub    r13,0x1
   1400011cb:	49 8b c4             	mov    rax,r12
   1400011ce:	48 83 c0 30          	add    rax,0x30
   1400011d2:	48 89 85 70 ff ff ff 	mov    QWORD PTR [rbp-0x90],rax
   1400011d9:	41 ba 0a 00 00 00    	mov    r10d,0xa
   1400011df:	49 8b c4             	mov    rax,r12
   1400011e2:	48 99                	cqo
   1400011e4:	49 f7 fa             	idiv   r10
   1400011e7:	48 6b c0 0a          	imul   rax,rax,0xa
   1400011eb:	48 89 85 60 ff ff ff 	mov    QWORD PTR [rbp-0xa0],rax
   1400011f2:	4c 8b 95 60 ff ff ff 	mov    r10,QWORD PTR [rbp-0xa0]
   1400011f9:	48 8b 85 70 ff ff ff 	mov    rax,QWORD PTR [rbp-0x90]
   140001200:	4c 29 d0             	sub    rax,r10
   140001203:	48 89 85 58 ff ff ff 	mov    QWORD PTR [rbp-0xa8],rax
   14000120a:	48 8d 45 e2          	lea    rax,[rbp-0x1e]
   14000120e:	48 89 85 50 ff ff ff 	mov    QWORD PTR [rbp-0xb0],rax
   140001215:	48 8b 8d 58 ff ff ff 	mov    rcx,QWORD PTR [rbp-0xa8]
   14000121c:	4d 8b d5             	mov    r10,r13
   14000121f:	48 8b 85 50 ff ff ff 	mov    rax,QWORD PTR [rbp-0xb0]
   140001226:	4a 8d 04 10          	lea    rax,[rax+r10*1]
   14000122a:	88 48 00             	mov    BYTE PTR [rax+0x0],cl
   14000122d:	41 ba 0a 00 00 00    	mov    r10d,0xa
   140001233:	49 8b c4             	mov    rax,r12
   140001236:	48 99                	cqo
   140001238:	49 f7 fa             	idiv   r10
   14000123b:	4c 8b e0             	mov    r12,rax
   14000123e:	e9 7b ff ff ff       	jmp    0x1400011be
   140001243:	49 8b c6             	mov    rax,r14
   140001246:	48 85 c0             	test   rax,rax
   140001249:	0f 84 2a 00 00 00    	je     0x140001279
   14000124f:	49 83 ed 01          	sub    r13,0x1
   140001253:	48 8d 45 e2          	lea    rax,[rbp-0x1e]
   140001257:	48 89 85 40 ff ff ff 	mov    QWORD PTR [rbp-0xc0],rax
   14000125e:	b9 2d 00 00 00       	mov    ecx,0x2d
   140001263:	4d 8b d5             	mov    r10,r13
   140001266:	48 8b 85 40 ff ff ff 	mov    rax,QWORD PTR [rbp-0xc0]
   14000126d:	4a 8d 04 10          	lea    rax,[rax+r10*1]
   140001271:	88 48 00             	mov    BYTE PTR [rax+0x0],cl
   140001274:	e9 00 00 00 00       	jmp    0x140001279
   140001279:	48 8d 45 e2          	lea    rax,[rbp-0x1e]
   14000127d:	48 89 85 30 ff ff ff 	mov    QWORD PTR [rbp-0xd0],rax
   140001284:	4d 8b d5             	mov    r10,r13
   140001287:	48 8b 85 30 ff ff ff 	mov    rax,QWORD PTR [rbp-0xd0]
   14000128e:	4a 8d 04 10          	lea    rax,[rax+r10*1]
   140001292:	48 89 85 28 ff ff ff 	mov    QWORD PTR [rbp-0xd8],rax
   140001299:	48 83 ec 20          	sub    rsp,0x20
   14000129d:	b9 01 00 00 00       	mov    ecx,0x1
   1400012a2:	e8 29 13 00 00       	call   0x1400025d0
   1400012a7:	48 83 c4 20          	add    rsp,0x20
   1400012ab:	48 89 85 20 ff ff ff 	mov    QWORD PTR [rbp-0xe0],rax
   1400012b2:	48 83 ec 20          	sub    rsp,0x20
   1400012b6:	48 8b 8d 28 ff ff ff 	mov    rcx,QWORD PTR [rbp-0xd8]
   1400012bd:	48 8b 95 20 ff ff ff 	mov    rdx,QWORD PTR [rbp-0xe0]
   1400012c4:	e8 d7 12 00 00       	call   0x1400025a0
   1400012c9:	48 83 c4 20          	add    rsp,0x20
   1400012cd:	48 89 85 18 ff ff ff 	mov    QWORD PTR [rbp-0xe8],rax
   1400012d4:	e9 00 00 00 00       	jmp    0x1400012d9
   1400012d9:	4c 8b b5 00 ff ff ff 	mov    r14,QWORD PTR [rbp-0x100]
   1400012e0:	4c 8b ad 08 ff ff ff 	mov    r13,QWORD PTR [rbp-0xf8]
   1400012e7:	4c 8b a5 10 ff ff ff 	mov    r12,QWORD PTR [rbp-0xf0]
   1400012ee:	48 8b e5             	mov    rsp,rbp
   1400012f1:	5d                   	pop    rbp
   1400012f2:	c3                   	ret
   1400012f3:	90                   	nop
   1400012f4:	90                   	nop
   1400012f5:	90                   	nop
   1400012f6:	90                   	nop
   1400012f7:	90                   	nop
   1400012f8:	90                   	nop
   1400012f9:	90                   	nop
   1400012fa:	90                   	nop
   1400012fb:	90                   	nop
   1400012fc:	90                   	nop
   1400012fd:	90                   	nop
   1400012fe:	90                   	nop
   1400012ff:	90                   	nop
   140001300:	55                   	push   rbp
   140001301:	48 8b ec             	mov    rbp,rsp
   140001304:	48 83 ec 20          	sub    rsp,0x20
   140001308:	48 89 4d f8          	mov    QWORD PTR [rbp-0x8],rcx
   14000130c:	48 83 ec 20          	sub    rsp,0x20
   140001310:	48 8b 4d f8          	mov    rcx,QWORD PTR [rbp-0x8]
   140001314:	e8 d7 fd ff ff       	call   0x1400010f0
   140001319:	48 83 c4 20          	add    rsp,0x20
   14000131d:	48 89 45 f0          	mov    QWORD PTR [rbp-0x10],rax
   140001321:	48 83 ec 20          	sub    rsp,0x20
   140001325:	b9 0a 00 00 00       	mov    ecx,0xa
   14000132a:	e8 11 12 00 00       	call   0x140002540
   14000132f:	48 83 c4 20          	add    rsp,0x20
   140001333:	48 89 45 e8          	mov    QWORD PTR [rbp-0x18],rax
   140001337:	e9 00 00 00 00       	jmp    0x14000133c
   14000133c:	48 8b e5             	mov    rsp,rbp
   14000133f:	5d                   	pop    rbp
   140001340:	c3                   	ret
   140001341:	90                   	nop
   140001342:	90                   	nop
   140001343:	90                   	nop
   140001344:	90                   	nop
   140001345:	90                   	nop
   140001346:	90                   	nop
   140001347:	90                   	nop
   140001348:	90                   	nop
   140001349:	90                   	nop
   14000134a:	90                   	nop
   14000134b:	90                   	nop
   14000134c:	90                   	nop
   14000134d:	90                   	nop
   14000134e:	90                   	nop
   14000134f:	90                   	nop
   140001350:	55                   	push   rbp
   140001351:	48 8b ec             	mov    rbp,rsp
   140001354:	48 83 ec 10          	sub    rsp,0x10
   140001358:	48 83 ec 20          	sub    rsp,0x20
   14000135c:	31 c9                	xor    ecx,ecx
   14000135e:	e8 6d 12 00 00       	call   0x1400025d0
   140001363:	48 83 c4 20          	add    rsp,0x20
   140001367:	48 89 45 f8          	mov    QWORD PTR [rbp-0x8],rax
   14000136b:	48 8b 45 f8          	mov    rax,QWORD PTR [rbp-0x8]
   14000136f:	e9 00 00 00 00       	jmp    0x140001374
   140001374:	48 8b e5             	mov    rsp,rbp
   140001377:	5d                   	pop    rbp
   140001378:	c3                   	ret
   140001379:	90                   	nop
   14000137a:	90                   	nop
   14000137b:	90                   	nop
   14000137c:	90                   	nop
   14000137d:	90                   	nop
   14000137e:	90                   	nop
   14000137f:	90                   	nop
   140001380:	55                   	push   rbp
   140001381:	48 8b ec             	mov    rbp,rsp
   140001384:	48 83 ec 10          	sub    rsp,0x10
   140001388:	48 83 ec 20          	sub    rsp,0x20
   14000138c:	b9 01 00 00 00       	mov    ecx,0x1
   140001391:	e8 3a 12 00 00       	call   0x1400025d0
   140001396:	48 83 c4 20          	add    rsp,0x20
   14000139a:	48 89 45 f8          	mov    QWORD PTR [rbp-0x8],rax
   14000139e:	48 8b 45 f8          	mov    rax,QWORD PTR [rbp-0x8]
   1400013a2:	e9 00 00 00 00       	jmp    0x1400013a7
   1400013a7:	48 8b e5             	mov    rsp,rbp
   1400013aa:	5d                   	pop    rbp
   1400013ab:	c3                   	ret
   1400013ac:	90                   	nop
   1400013ad:	90                   	nop
   1400013ae:	90                   	nop
   1400013af:	90                   	nop
   1400013b0:	55                   	push   rbp
   1400013b1:	48 8b ec             	mov    rbp,rsp
   1400013b4:	48 83 ec 10          	sub    rsp,0x10
   1400013b8:	48 83 ec 20          	sub    rsp,0x20
   1400013bc:	b9 02 00 00 00       	mov    ecx,0x2
   1400013c1:	e8 0a 12 00 00       	call   0x1400025d0
   1400013c6:	48 83 c4 20          	add    rsp,0x20
   1400013ca:	48 89 45 f8          	mov    QWORD PTR [rbp-0x8],rax
   1400013ce:	48 8b 45 f8          	mov    rax,QWORD PTR [rbp-0x8]
   1400013d2:	e9 00 00 00 00       	jmp    0x1400013d7
   1400013d7:	48 8b e5             	mov    rsp,rbp
   1400013da:	5d                   	pop    rbp
   1400013db:	c3                   	ret
   1400013dc:	90                   	nop
   1400013dd:	90                   	nop
   1400013de:	90                   	nop
   1400013df:	90                   	nop
   1400013e0:	55                   	push   rbp
   1400013e1:	48 8b ec             	mov    rbp,rsp
   1400013e4:	48 83 ec 20          	sub    rsp,0x20
   1400013e8:	48 89 4d f8          	mov    QWORD PTR [rbp-0x8],rcx
   1400013ec:	48 83 ec 20          	sub    rsp,0x20
   1400013f0:	b9 02 00 00 00       	mov    ecx,0x2
   1400013f5:	e8 d6 11 00 00       	call   0x1400025d0
   1400013fa:	48 83 c4 20          	add    rsp,0x20
   1400013fe:	48 89 45 f0          	mov    QWORD PTR [rbp-0x10],rax
   140001402:	48 83 ec 20          	sub    rsp,0x20
   140001406:	48 8b 4d f8          	mov    rcx,QWORD PTR [rbp-0x8]
   14000140a:	48 8b 55 f0          	mov    rdx,QWORD PTR [rbp-0x10]
   14000140e:	e8 8d 11 00 00       	call   0x1400025a0
   140001413:	48 83 c4 20          	add    rsp,0x20
   140001417:	48 89 45 e8          	mov    QWORD PTR [rbp-0x18],rax
   14000141b:	e9 00 00 00 00       	jmp    0x140001420
   140001420:	48 8b e5             	mov    rsp,rbp
   140001423:	5d                   	pop    rbp
   140001424:	c3                   	ret
   140001425:	90                   	nop
   140001426:	90                   	nop
   140001427:	90                   	nop
   140001428:	90                   	nop
   140001429:	90                   	nop
   14000142a:	90                   	nop
   14000142b:	90                   	nop
   14000142c:	90                   	nop
   14000142d:	90                   	nop
   14000142e:	90                   	nop
   14000142f:	90                   	nop
   140001430:	55                   	push   rbp
   140001431:	48 8b ec             	mov    rbp,rsp
   140001434:	48 83 ec 40          	sub    rsp,0x40
   140001438:	48 89 4d f8          	mov    QWORD PTR [rbp-0x8],rcx
   14000143c:	48 83 ec 20          	sub    rsp,0x20
   140001440:	b9 02 00 00 00       	mov    ecx,0x2
   140001445:	e8 86 11 00 00       	call   0x1400025d0
   14000144a:	48 83 c4 20          	add    rsp,0x20
   14000144e:	48 89 45 e0          	mov    QWORD PTR [rbp-0x20],rax
   140001452:	48 83 ec 20          	sub    rsp,0x20
   140001456:	48 8b 4d f8          	mov    rcx,QWORD PTR [rbp-0x8]
   14000145a:	48 8b 55 e0          	mov    rdx,QWORD PTR [rbp-0x20]
   14000145e:	e8 3d 11 00 00       	call   0x1400025a0
   140001463:	48 83 c4 20          	add    rsp,0x20
   140001467:	48 89 45 d8          	mov    QWORD PTR [rbp-0x28],rax
   14000146b:	48 8d 05 96 1b 00 00 	lea    rax,[rip+0x1b96]        # 0x140003008
   140001472:	48 89 45 e8          	mov    QWORD PTR [rbp-0x18],rax
   140001476:	48 8d 05 a3 1b 00 00 	lea    rax,[rip+0x1ba3]        # 0x140003020
   14000147d:	48 8b 40 00          	mov    rax,QWORD PTR [rax+0x0]
   140001481:	48 89 45 d0          	mov    QWORD PTR [rbp-0x30],rax
   140001485:	48 83 ec 20          	sub    rsp,0x20
   140001489:	b9 02 00 00 00       	mov    ecx,0x2
   14000148e:	e8 3d 11 00 00       	call   0x1400025d0
   140001493:	48 83 c4 20          	add    rsp,0x20
   140001497:	48 89 45 c8          	mov    QWORD PTR [rbp-0x38],rax
   14000149b:	48 83 ec 20          	sub    rsp,0x20
   14000149f:	48 8b 4d d0          	mov    rcx,QWORD PTR [rbp-0x30]
   1400014a3:	48 8b 55 c8          	mov    rdx,QWORD PTR [rbp-0x38]
   1400014a7:	e8 f4 10 00 00       	call   0x1400025a0
   1400014ac:	48 83 c4 20          	add    rsp,0x20
   1400014b0:	48 89 45 c0          	mov    QWORD PTR [rbp-0x40],rax
   1400014b4:	e9 00 00 00 00       	jmp    0x1400014b9
   1400014b9:	48 8b e5             	mov    rsp,rbp
   1400014bc:	5d                   	pop    rbp
   1400014bd:	c3                   	ret
   1400014be:	90                   	nop
   1400014bf:	90                   	nop
   1400014c0:	55                   	push   rbp
   1400014c1:	48 8b ec             	mov    rbp,rsp
   1400014c4:	48 83 ec 50          	sub    rsp,0x50
   1400014c8:	48 8b 05 31 2b 00 00 	mov    rax,QWORD PTR [rip+0x2b31]        # 0x140004000
   1400014cf:	48 85 c0             	test   rax,rax
   1400014d2:	0f 85 25 00 00 00    	jne    0x1400014fd
   1400014d8:	48 8d 05 21 2b 00 00 	lea    rax,[rip+0x2b21]        # 0x140004000
   1400014df:	48 89 45 e8          	mov    QWORD PTR [rbp-0x18],rax
   1400014e3:	48 83 ec 20          	sub    rsp,0x20
   1400014e7:	48 8b 4d e8          	mov    rcx,QWORD PTR [rbp-0x18]
   1400014eb:	e8 00 11 00 00       	call   0x1400025f0
   1400014f0:	48 83 c4 20          	add    rsp,0x20
   1400014f4:	48 89 45 e0          	mov    QWORD PTR [rbp-0x20],rax
   1400014f8:	e9 00 00 00 00       	jmp    0x1400014fd
   1400014fd:	31 c0                	xor    eax,eax
   1400014ff:	48 89 45 f8          	mov    QWORD PTR [rbp-0x8],rax
   140001503:	48 8d 45 f8          	lea    rax,[rbp-0x8]
   140001507:	48 89 45 d8          	mov    QWORD PTR [rbp-0x28],rax
   14000150b:	48 83 ec 20          	sub    rsp,0x20
   14000150f:	48 8b 4d d8          	mov    rcx,QWORD PTR [rbp-0x28]
   140001513:	e8 c8 10 00 00       	call   0x1400025e0
   140001518:	48 83 c4 20          	add    rsp,0x20
   14000151c:	48 89 45 d0          	mov    QWORD PTR [rbp-0x30],rax
   140001520:	48 8b 05 d9 2a 00 00 	mov    rax,QWORD PTR [rip+0x2ad9]        # 0x140004000
   140001527:	48 85 c0             	test   rax,rax
   14000152a:	0f 85 07 00 00 00    	jne    0x140001537
   140001530:	31 c0                	xor    eax,eax
   140001532:	e9 2c 00 00 00       	jmp    0x140001563
   140001537:	48 8b 45 f8          	mov    rax,QWORD PTR [rbp-0x8]
   14000153b:	48 69 c0 40 42 0f 00 	imul   rax,rax,0xf4240
   140001542:	4c 8b 15 b7 2a 00 00 	mov    r10,QWORD PTR [rip+0x2ab7]        # 0x140004000
   140001549:	48 99                	cqo
   14000154b:	49 f7 fa             	idiv   r10
   14000154e:	48 89 45 b8          	mov    QWORD PTR [rbp-0x48],rax
   140001552:	48 8b 45 b8          	mov    rax,QWORD PTR [rbp-0x48]
   140001556:	48 89 45 b0          	mov    QWORD PTR [rbp-0x50],rax
   14000155a:	48 8b 45 b0          	mov    rax,QWORD PTR [rbp-0x50]
   14000155e:	e9 00 00 00 00       	jmp    0x140001563
   140001563:	48 8b e5             	mov    rsp,rbp
   140001566:	5d                   	pop    rbp
   140001567:	c3                   	ret
   140001568:	90                   	nop
   140001569:	90                   	nop
   14000156a:	90                   	nop
   14000156b:	90                   	nop
   14000156c:	90                   	nop
   14000156d:	90                   	nop
   14000156e:	90                   	nop
   14000156f:	90                   	nop
   140001570:	55                   	push   rbp
   140001571:	48 8b ec             	mov    rbp,rsp
   140001574:	48 83 ec 40          	sub    rsp,0x40
   140001578:	48 89 4d f8          	mov    QWORD PTR [rbp-0x8],rcx
   14000157c:	48 89 55 f0          	mov    QWORD PTR [rbp-0x10],rdx
   140001580:	48 8b 45 f8          	mov    rax,QWORD PTR [rbp-0x8]
   140001584:	48 89 45 e8          	mov    QWORD PTR [rbp-0x18],rax
   140001588:	b8 20 00 00 00       	mov    eax,0x20
   14000158d:	48 89 45 e0          	mov    QWORD PTR [rbp-0x20],rax
   140001591:	4c 8b 55 e0          	mov    r10,QWORD PTR [rbp-0x20]
   140001595:	48 8b 45 e8          	mov    rax,QWORD PTR [rbp-0x18]
   140001599:	49 0f af c2          	imul   rax,r10
   14000159d:	48 89 45 d8          	mov    QWORD PTR [rbp-0x28],rax
   1400015a1:	48 8b 45 f0          	mov    rax,QWORD PTR [rbp-0x10]
   1400015a5:	48 89 45 d0          	mov    QWORD PTR [rbp-0x30],rax
   1400015a9:	4c 8b 55 d0          	mov    r10,QWORD PTR [rbp-0x30]
   1400015ad:	48 8b 45 d8          	mov    rax,QWORD PTR [rbp-0x28]
   1400015b1:	4a 8d 04 10          	lea    rax,[rax+r10*1]
   1400015b5:	48 89 45 c8          	mov    QWORD PTR [rbp-0x38],rax
   1400015b9:	48 8b 45 c8          	mov    rax,QWORD PTR [rbp-0x38]
   1400015bd:	e9 00 00 00 00       	jmp    0x1400015c2
   1400015c2:	48 8b e5             	mov    rsp,rbp
   1400015c5:	5d                   	pop    rbp
   1400015c6:	c3                   	ret
   1400015c7:	90                   	nop
   1400015c8:	90                   	nop
   1400015c9:	90                   	nop
   1400015ca:	90                   	nop
   1400015cb:	90                   	nop
   1400015cc:	90                   	nop
   1400015cd:	90                   	nop
   1400015ce:	90                   	nop
   1400015cf:	90                   	nop
   1400015d0:	55                   	push   rbp
   1400015d1:	48 8b ec             	mov    rbp,rsp
   1400015d4:	48 81 ec c0 00 00 00 	sub    rsp,0xc0
   1400015db:	4c 89 a5 70 ff ff ff 	mov    QWORD PTR [rbp-0x90],r12
   1400015e2:	4c 89 ad 68 ff ff ff 	mov    QWORD PTR [rbp-0x98],r13
   1400015e9:	4c 89 b5 60 ff ff ff 	mov    QWORD PTR [rbp-0xa0],r14
   1400015f0:	4c 89 bd 58 ff ff ff 	mov    QWORD PTR [rbp-0xa8],r15
   1400015f7:	48 89 9d 50 ff ff ff 	mov    QWORD PTR [rbp-0xb0],rbx
   1400015fe:	48 89 b5 48 ff ff ff 	mov    QWORD PTR [rbp-0xb8],rsi
   140001605:	48 89 bd 40 ff ff ff 	mov    QWORD PTR [rbp-0xc0],rdi
   14000160c:	4c 8b f9             	mov    r15,rcx
   14000160f:	48 8b da             	mov    rbx,rdx
   140001612:	45 31 f6             	xor    r14d,r14d
   140001615:	31 ff                	xor    edi,edi
   140001617:	41 ba 20 00 00 00    	mov    r10d,0x20
   14000161d:	4d 39 d6             	cmp    r14,r10
   140001620:	0f 8d 9b 00 00 00    	jge    0x1400016c1
   140001626:	45 31 ed             	xor    r13d,r13d
   140001629:	4c 8b e7             	mov    r12,rdi
   14000162c:	41 ba 20 00 00 00    	mov    r10d,0x20
   140001632:	4d 39 d5             	cmp    r13,r10
   140001635:	0f 8d 60 00 00 00    	jge    0x14000169b
   14000163b:	49 8b c6             	mov    rax,r14
   14000163e:	48 69 c0 83 00 00 00 	imul   rax,rax,0x83
   140001645:	48 89 45 b0          	mov    QWORD PTR [rbp-0x50],rax
   140001649:	49 8b c5             	mov    rax,r13
   14000164c:	48 6b c0 11          	imul   rax,rax,0x11
   140001650:	4c 8b 55 b0          	mov    r10,QWORD PTR [rbp-0x50]
   140001654:	4a 8d 04 10          	lea    rax,[rax+r10*1]
   140001658:	48 89 45 a0          	mov    QWORD PTR [rbp-0x60],rax
   14000165c:	4c 8b d3             	mov    r10,rbx
   14000165f:	48 8b 45 a0          	mov    rax,QWORD PTR [rbp-0x60]
   140001663:	4a 8d 04 10          	lea    rax,[rax+r10*1]
   140001667:	41 ba fb 00 00 00    	mov    r10d,0xfb
   14000166d:	48 99                	cqo
   14000166f:	49 f7 fa             	idiv   r10
   140001672:	48 8b c2             	mov    rax,rdx
   140001675:	48 89 45 90          	mov    QWORD PTR [rbp-0x70],rax
   140001679:	48 8b 75 90          	mov    rsi,QWORD PTR [rbp-0x70]
   14000167d:	48 8b 4d 90          	mov    rcx,QWORD PTR [rbp-0x70]
   140001681:	4d 8b d4             	mov    r10,r12
   140001684:	49 8b c7             	mov    rax,r15
   140001687:	4a 8d 04 90          	lea    rax,[rax+r10*4]
   14000168b:	89 48 00             	mov    DWORD PTR [rax+0x0],ecx
   14000168e:	49 83 c4 01          	add    r12,0x1
   140001692:	49 83 c5 01          	add    r13,0x1
   140001696:	e9 91 ff ff ff       	jmp    0x14000162c
   14000169b:	b8 20 00 00 00       	mov    eax,0x20
   1400016a0:	48 89 85 78 ff ff ff 	mov    QWORD PTR [rbp-0x88],rax
   1400016a7:	4c 8b 95 78 ff ff ff 	mov    r10,QWORD PTR [rbp-0x88]
   1400016ae:	48 8b c7             	mov    rax,rdi
   1400016b1:	4a 8d 04 10          	lea    rax,[rax+r10*1]
   1400016b5:	48 8b f8             	mov    rdi,rax
   1400016b8:	49 83 c6 01          	add    r14,0x1
   1400016bc:	e9 56 ff ff ff       	jmp    0x140001617
   1400016c1:	e9 00 00 00 00       	jmp    0x1400016c6
   1400016c6:	48 8b bd 40 ff ff ff 	mov    rdi,QWORD PTR [rbp-0xc0]
   1400016cd:	48 8b b5 48 ff ff ff 	mov    rsi,QWORD PTR [rbp-0xb8]
   1400016d4:	48 8b 9d 50 ff ff ff 	mov    rbx,QWORD PTR [rbp-0xb0]
   1400016db:	4c 8b bd 58 ff ff ff 	mov    r15,QWORD PTR [rbp-0xa8]
   1400016e2:	4c 8b b5 60 ff ff ff 	mov    r14,QWORD PTR [rbp-0xa0]
   1400016e9:	4c 8b ad 68 ff ff ff 	mov    r13,QWORD PTR [rbp-0x98]
   1400016f0:	4c 8b a5 70 ff ff ff 	mov    r12,QWORD PTR [rbp-0x90]
   1400016f7:	48 8b e5             	mov    rsp,rbp
   1400016fa:	5d                   	pop    rbp
   1400016fb:	c3                   	ret
   1400016fc:	90                   	nop
   1400016fd:	90                   	nop
   1400016fe:	90                   	nop
   1400016ff:	90                   	nop
   140001700:	55                   	push   rbp
   140001701:	48 8b ec             	mov    rbp,rsp
   140001704:	48 83 ec 20          	sub    rsp,0x20
   140001708:	48 89 4d f8          	mov    QWORD PTR [rbp-0x8],rcx
   14000170c:	48 89 55 f0          	mov    QWORD PTR [rbp-0x10],rdx
   140001710:	4c 89 45 e8          	mov    QWORD PTR [rbp-0x18],r8
   140001714:	48 8b 4d f8          	mov    rcx,QWORD PTR [rbp-0x8]
   140001718:	48 8b 55 f0          	mov    rdx,QWORD PTR [rbp-0x10]
   14000171c:	4c 8b 45 e8          	mov    r8,QWORD PTR [rbp-0x18]
   140001720:	45 31 c9             	xor    r9d,r9d
   140001723:	41 81 f9 20 00 00 00 	cmp    r9d,0x20
   14000172a:	0f 83 b3 00 00 00    	jae    0x1400017e3
   140001730:	45 31 d2             	xor    r10d,r10d
   140001733:	41 81 fa 20 00 00 00 	cmp    r10d,0x20
   14000173a:	0f 83 9a 00 00 00    	jae    0x1400017da
   140001740:	66 0f ef db          	pxor   xmm3,xmm3
   140001744:	45 31 db             	xor    r11d,r11d
   140001747:	41 81 fb 20 00 00 00 	cmp    r11d,0x20
   14000174e:	0f 83 3d 00 00 00    	jae    0x140001791
   140001754:	44 89 c8             	mov    eax,r9d
   140001757:	c1 e0 05             	shl    eax,0x5
   14000175a:	4c 01 d8             	add    rax,r11
   14000175d:	48 8d 04 81          	lea    rax,[rcx+rax*4]
   140001761:	66 0f 6e 20          	movd   xmm4,DWORD PTR [rax]
   140001765:	66 0f 70 e4 00       	pshufd xmm4,xmm4,0x0
   14000176a:	44 89 d8             	mov    eax,r11d
   14000176d:	c1 e0 05             	shl    eax,0x5
   140001770:	4c 01 d0             	add    rax,r10
   140001773:	48 8d 04 82          	lea    rax,[rdx+rax*4]
   140001777:	f3 0f 6f 10          	movdqu xmm2,XMMWORD PTR [rax]
   14000177b:	66 0f 6f c2          	movdqa xmm0,xmm2
   14000177f:	66 0f 38 40 c4       	pmulld xmm0,xmm4
   140001784:	66 0f fe d8          	paddd  xmm3,xmm0
   140001788:	49 83 c3 01          	add    r11,0x1
   14000178c:	e9 b6 ff ff ff       	jmp    0x140001747
   140001791:	44 89 c8             	mov    eax,r9d
   140001794:	c1 e0 05             	shl    eax,0x5
   140001797:	4c 01 d0             	add    rax,r10
   14000179a:	49 8d 04 80          	lea    rax,[r8+rax*4]
   14000179e:	66 41 0f 7e db       	movd   r11d,xmm3
   1400017a3:	44 89 58 00          	mov    DWORD PTR [rax+0x0],r11d
   1400017a7:	66 0f 70 c3 01       	pshufd xmm0,xmm3,0x1
   1400017ac:	66 41 0f 7e c3       	movd   r11d,xmm0
   1400017b1:	44 89 58 04          	mov    DWORD PTR [rax+0x4],r11d
   1400017b5:	66 0f 70 c3 02       	pshufd xmm0,xmm3,0x2
   1400017ba:	66 41 0f 7e c3       	movd   r11d,xmm0
   1400017bf:	44 89 58 08          	mov    DWORD PTR [rax+0x8],r11d
   1400017c3:	66 0f 70 c3 03       	pshufd xmm0,xmm3,0x3
   1400017c8:	66 41 0f 7e c3       	movd   r11d,xmm0
   1400017cd:	44 89 58 0c          	mov    DWORD PTR [rax+0xc],r11d
   1400017d1:	49 83 c2 04          	add    r10,0x4
   1400017d5:	e9 59 ff ff ff       	jmp    0x140001733
   1400017da:	49 83 c1 01          	add    r9,0x1
   1400017de:	e9 40 ff ff ff       	jmp    0x140001723
   1400017e3:	e9 00 00 00 00       	jmp    0x1400017e8
   1400017e8:	48 8b e5             	mov    rsp,rbp
   1400017eb:	5d                   	pop    rbp
   1400017ec:	c3                   	ret
   1400017ed:	90                   	nop
   1400017ee:	90                   	nop
   1400017ef:	90                   	nop
   1400017f0:	55                   	push   rbp
   1400017f1:	48 8b ec             	mov    rbp,rsp
   1400017f4:	48 81 ec 80 00 00 00 	sub    rsp,0x80
   1400017fb:	4c 89 65 a0          	mov    QWORD PTR [rbp-0x60],r12
   1400017ff:	4c 89 6d 98          	mov    QWORD PTR [rbp-0x68],r13
   140001803:	4c 89 75 90          	mov    QWORD PTR [rbp-0x70],r14
   140001807:	4c 89 7d 88          	mov    QWORD PTR [rbp-0x78],r15
   14000180b:	4c 8b e9             	mov    r13,rcx
   14000180e:	45 31 ff             	xor    r15d,r15d
   140001811:	45 31 e4             	xor    r12d,r12d
   140001814:	45 31 f6             	xor    r14d,r14d
   140001817:	41 ba 20 00 00 00    	mov    r10d,0x20
   14000181d:	4d 39 d4             	cmp    r12,r10
   140001820:	0f 8d 4e 00 00 00    	jge    0x140001874
   140001826:	4d 8b d6             	mov    r10,r14
   140001829:	49 8b c5             	mov    rax,r13
   14000182c:	4a 8d 04 90          	lea    rax,[rax+r10*4]
   140001830:	8b 40 00             	mov    eax,DWORD PTR [rax+0x0]
   140001833:	48 63 c0             	movsxd rax,eax
   140001836:	48 89 45 c0          	mov    QWORD PTR [rbp-0x40],rax
   14000183a:	48 8b 45 c0          	mov    rax,QWORD PTR [rbp-0x40]
   14000183e:	48 89 45 b8          	mov    QWORD PTR [rbp-0x48],rax
   140001842:	4c 8b 55 b8          	mov    r10,QWORD PTR [rbp-0x48]
   140001846:	49 8b c7             	mov    rax,r15
   140001849:	4a 8d 04 10          	lea    rax,[rax+r10*1]
   14000184d:	4c 8b f8             	mov    r15,rax
   140001850:	b8 20 00 00 00       	mov    eax,0x20
   140001855:	48 89 45 b0          	mov    QWORD PTR [rbp-0x50],rax
   140001859:	4c 8b 55 b0          	mov    r10,QWORD PTR [rbp-0x50]
   14000185d:	49 8b c6             	mov    rax,r14
   140001860:	4a 8d 04 10          	lea    rax,[rax+r10*1]
   140001864:	48 83 c0 01          	add    rax,0x1
   140001868:	4c 8b f0             	mov    r14,rax
   14000186b:	49 83 c4 01          	add    r12,0x1
   14000186f:	e9 a3 ff ff ff       	jmp    0x140001817
   140001874:	49 8b c7             	mov    rax,r15
   140001877:	e9 00 00 00 00       	jmp    0x14000187c
   14000187c:	4c 8b 7d 88          	mov    r15,QWORD PTR [rbp-0x78]
   140001880:	4c 8b 75 90          	mov    r14,QWORD PTR [rbp-0x70]
   140001884:	4c 8b 6d 98          	mov    r13,QWORD PTR [rbp-0x68]
   140001888:	4c 8b 65 a0          	mov    r12,QWORD PTR [rbp-0x60]
   14000188c:	48 8b e5             	mov    rsp,rbp
   14000188f:	5d                   	pop    rbp
   140001890:	c3                   	ret
   140001891:	90                   	nop
   140001892:	90                   	nop
   140001893:	90                   	nop
   140001894:	90                   	nop
   140001895:	90                   	nop
   140001896:	90                   	nop
   140001897:	90                   	nop
   140001898:	90                   	nop
   140001899:	90                   	nop
   14000189a:	90                   	nop
   14000189b:	90                   	nop
   14000189c:	90                   	nop
   14000189d:	90                   	nop
   14000189e:	90                   	nop
   14000189f:	90                   	nop
   1400018a0:	55                   	push   rbp
   1400018a1:	48 8b ec             	mov    rbp,rsp
   1400018a4:	48 81 ec 00 10 00 00 	sub    rsp,0x1000
   1400018ab:	48 89 44 24 00       	mov    QWORD PTR [rsp+0x0],rax
   1400018b0:	48 81 ec 00 10 00 00 	sub    rsp,0x1000
   1400018b7:	48 89 44 24 00       	mov    QWORD PTR [rsp+0x0],rax
   1400018bc:	48 81 ec 00 10 00 00 	sub    rsp,0x1000
   1400018c3:	48 89 44 24 00       	mov    QWORD PTR [rsp+0x0],rax
   1400018c8:	48 81 ec 50 05 00 00 	sub    rsp,0x550
   1400018cf:	48 89 44 24 00       	mov    QWORD PTR [rsp+0x0],rax
   1400018d4:	4c 89 a5 e8 ca ff ff 	mov    QWORD PTR [rbp-0x3518],r12
   1400018db:	4c 89 ad e0 ca ff ff 	mov    QWORD PTR [rbp-0x3520],r13
   1400018e2:	4c 89 b5 d8 ca ff ff 	mov    QWORD PTR [rbp-0x3528],r14
   1400018e9:	4c 89 bd d0 ca ff ff 	mov    QWORD PTR [rbp-0x3530],r15
   1400018f0:	48 89 9d c8 ca ff ff 	mov    QWORD PTR [rbp-0x3538],rbx
   1400018f7:	48 89 b5 c0 ca ff ff 	mov    QWORD PTR [rbp-0x3540],rsi
   1400018fe:	48 89 bd b8 ca ff ff 	mov    QWORD PTR [rbp-0x3548],rdi
   140001905:	b8 c8 00 00 00       	mov    eax,0xc8
   14000190a:	48 89 45 f8          	mov    QWORD PTR [rbp-0x8],rax
   14000190e:	48 8d 85 f8 ef ff ff 	lea    rax,[rbp-0x1008]
   140001915:	48 89 85 a0 cd ff ff 	mov    QWORD PTR [rbp-0x3260],rax
   14000191c:	48 8b 85 a0 cd ff ff 	mov    rax,QWORD PTR [rbp-0x3260]
   140001923:	48 89 85 f0 cf ff ff 	mov    QWORD PTR [rbp-0x3010],rax
   14000192a:	b8 03 00 00 00       	mov    eax,0x3
   14000192f:	48 89 85 e8 cf ff ff 	mov    QWORD PTR [rbp-0x3018],rax
   140001936:	31 c0                	xor    eax,eax
   140001938:	48 89 85 e0 cf ff ff 	mov    QWORD PTR [rbp-0x3020],rax
   14000193f:	31 c0                	xor    eax,eax
   140001941:	48 89 85 d8 cf ff ff 	mov    QWORD PTR [rbp-0x3028],rax
   140001948:	41 ba 20 00 00 00    	mov    r10d,0x20
   14000194e:	48 8b 85 e0 cf ff ff 	mov    rax,QWORD PTR [rbp-0x3020]
   140001955:	4c 39 d0             	cmp    rax,r10
   140001958:	0f 8d dd 00 00 00    	jge    0x140001a3b
   14000195e:	45 31 e4             	xor    r12d,r12d
   140001961:	4c 8b b5 d8 cf ff ff 	mov    r14,QWORD PTR [rbp-0x3028]
   140001968:	41 ba 20 00 00 00    	mov    r10d,0x20
   14000196e:	4d 39 d4             	cmp    r12,r10
   140001971:	0f 8d 88 00 00 00    	jge    0x1400019ff
   140001977:	48 8b 85 e0 cf ff ff 	mov    rax,QWORD PTR [rbp-0x3020]
   14000197e:	48 69 c0 83 00 00 00 	imul   rax,rax,0x83
   140001985:	48 89 85 88 cd ff ff 	mov    QWORD PTR [rbp-0x3278],rax
   14000198c:	49 8b c4             	mov    rax,r12
   14000198f:	48 6b c0 11          	imul   rax,rax,0x11
   140001993:	4c 8b 95 88 cd ff ff 	mov    r10,QWORD PTR [rbp-0x3278]
   14000199a:	4a 8d 04 10          	lea    rax,[rax+r10*1]
   14000199e:	48 89 85 78 cd ff ff 	mov    QWORD PTR [rbp-0x3288],rax
   1400019a5:	4c 8b 95 e8 cf ff ff 	mov    r10,QWORD PTR [rbp-0x3018]
   1400019ac:	48 8b 85 78 cd ff ff 	mov    rax,QWORD PTR [rbp-0x3288]
   1400019b3:	4a 8d 04 10          	lea    rax,[rax+r10*1]
   1400019b7:	41 ba fb 00 00 00    	mov    r10d,0xfb
   1400019bd:	48 99                	cqo
   1400019bf:	49 f7 fa             	idiv   r10
   1400019c2:	48 8b c2             	mov    rax,rdx
   1400019c5:	48 89 85 68 cd ff ff 	mov    QWORD PTR [rbp-0x3298],rax
   1400019cc:	48 8b 85 68 cd ff ff 	mov    rax,QWORD PTR [rbp-0x3298]
   1400019d3:	48 89 85 c0 cf ff ff 	mov    QWORD PTR [rbp-0x3040],rax
   1400019da:	48 8b 8d 68 cd ff ff 	mov    rcx,QWORD PTR [rbp-0x3298]
   1400019e1:	4d 8b d6             	mov    r10,r14
   1400019e4:	48 8b 85 f0 cf ff ff 	mov    rax,QWORD PTR [rbp-0x3010]
   1400019eb:	4a 8d 04 90          	lea    rax,[rax+r10*4]
   1400019ef:	89 48 00             	mov    DWORD PTR [rax+0x0],ecx
   1400019f2:	49 83 c6 01          	add    r14,0x1
   1400019f6:	49 83 c4 01          	add    r12,0x1
   1400019fa:	e9 69 ff ff ff       	jmp    0x140001968
   1400019ff:	b8 20 00 00 00       	mov    eax,0x20
   140001a04:	48 89 85 50 cd ff ff 	mov    QWORD PTR [rbp-0x32b0],rax
   140001a0b:	4c 8b 95 50 cd ff ff 	mov    r10,QWORD PTR [rbp-0x32b0]
   140001a12:	48 8b 85 d8 cf ff ff 	mov    rax,QWORD PTR [rbp-0x3028]
   140001a19:	4a 8d 04 10          	lea    rax,[rax+r10*1]
   140001a1d:	48 89 85 d8 cf ff ff 	mov    QWORD PTR [rbp-0x3028],rax
   140001a24:	48 8b 85 e0 cf ff ff 	mov    rax,QWORD PTR [rbp-0x3020]
   140001a2b:	48 83 c0 01          	add    rax,0x1
   140001a2f:	48 89 85 e0 cf ff ff 	mov    QWORD PTR [rbp-0x3020],rax
   140001a36:	e9 0d ff ff ff       	jmp    0x140001948
   140001a3b:	48 8d 85 f8 df ff ff 	lea    rax,[rbp-0x2008]
   140001a42:	48 89 85 48 cd ff ff 	mov    QWORD PTR [rbp-0x32b8],rax
   140001a49:	48 8b 85 48 cd ff ff 	mov    rax,QWORD PTR [rbp-0x32b8]
   140001a50:	48 89 85 b8 cf ff ff 	mov    QWORD PTR [rbp-0x3048],rax
   140001a57:	b8 07 00 00 00       	mov    eax,0x7
   140001a5c:	48 89 85 b0 cf ff ff 	mov    QWORD PTR [rbp-0x3050],rax
   140001a63:	31 c0                	xor    eax,eax
   140001a65:	48 89 85 a8 cf ff ff 	mov    QWORD PTR [rbp-0x3058],rax
   140001a6c:	31 c0                	xor    eax,eax
   140001a6e:	48 89 85 a0 cf ff ff 	mov    QWORD PTR [rbp-0x3060],rax
   140001a75:	41 ba 20 00 00 00    	mov    r10d,0x20
   140001a7b:	48 8b 85 a8 cf ff ff 	mov    rax,QWORD PTR [rbp-0x3058]
   140001a82:	4c 39 d0             	cmp    rax,r10
   140001a85:	0f 8d dd 00 00 00    	jge    0x140001b68
   140001a8b:	45 31 ed             	xor    r13d,r13d
   140001a8e:	4c 8b bd a0 cf ff ff 	mov    r15,QWORD PTR [rbp-0x3060]
   140001a95:	41 ba 20 00 00 00    	mov    r10d,0x20
   140001a9b:	4d 39 d5             	cmp    r13,r10
   140001a9e:	0f 8d 88 00 00 00    	jge    0x140001b2c
   140001aa4:	48 8b 85 a8 cf ff ff 	mov    rax,QWORD PTR [rbp-0x3058]
   140001aab:	48 69 c0 83 00 00 00 	imul   rax,rax,0x83
   140001ab2:	48 89 85 30 cd ff ff 	mov    QWORD PTR [rbp-0x32d0],rax
   140001ab9:	49 8b c5             	mov    rax,r13
   140001abc:	48 6b c0 11          	imul   rax,rax,0x11
   140001ac0:	4c 8b 95 30 cd ff ff 	mov    r10,QWORD PTR [rbp-0x32d0]
   140001ac7:	4a 8d 04 10          	lea    rax,[rax+r10*1]
   140001acb:	48 89 85 20 cd ff ff 	mov    QWORD PTR [rbp-0x32e0],rax
   140001ad2:	4c 8b 95 b0 cf ff ff 	mov    r10,QWORD PTR [rbp-0x3050]
   140001ad9:	48 8b 85 20 cd ff ff 	mov    rax,QWORD PTR [rbp-0x32e0]
   140001ae0:	4a 8d 04 10          	lea    rax,[rax+r10*1]
   140001ae4:	41 ba fb 00 00 00    	mov    r10d,0xfb
   140001aea:	48 99                	cqo
   140001aec:	49 f7 fa             	idiv   r10
   140001aef:	48 8b c2             	mov    rax,rdx
   140001af2:	48 89 85 10 cd ff ff 	mov    QWORD PTR [rbp-0x32f0],rax
   140001af9:	48 8b 85 10 cd ff ff 	mov    rax,QWORD PTR [rbp-0x32f0]
   140001b00:	48 89 85 88 cf ff ff 	mov    QWORD PTR [rbp-0x3078],rax
   140001b07:	48 8b 8d 10 cd ff ff 	mov    rcx,QWORD PTR [rbp-0x32f0]
   140001b0e:	4d 8b d7             	mov    r10,r15
   140001b11:	48 8b 85 b8 cf ff ff 	mov    rax,QWORD PTR [rbp-0x3048]
   140001b18:	4a 8d 04 90          	lea    rax,[rax+r10*4]
   140001b1c:	89 48 00             	mov    DWORD PTR [rax+0x0],ecx
   140001b1f:	49 83 c7 01          	add    r15,0x1
   140001b23:	49 83 c5 01          	add    r13,0x1
   140001b27:	e9 69 ff ff ff       	jmp    0x140001a95
   140001b2c:	b8 20 00 00 00       	mov    eax,0x20
   140001b31:	48 89 85 f8 cc ff ff 	mov    QWORD PTR [rbp-0x3308],rax
   140001b38:	4c 8b 95 f8 cc ff ff 	mov    r10,QWORD PTR [rbp-0x3308]
   140001b3f:	48 8b 85 a0 cf ff ff 	mov    rax,QWORD PTR [rbp-0x3060]
   140001b46:	4a 8d 04 10          	lea    rax,[rax+r10*1]
   140001b4a:	48 89 85 a0 cf ff ff 	mov    QWORD PTR [rbp-0x3060],rax
   140001b51:	48 8b 85 a8 cf ff ff 	mov    rax,QWORD PTR [rbp-0x3058]
   140001b58:	48 83 c0 01          	add    rax,0x1
   140001b5c:	48 89 85 a8 cf ff ff 	mov    QWORD PTR [rbp-0x3058],rax
   140001b63:	e9 0d ff ff ff       	jmp    0x140001a75
   140001b68:	48 8d 05 e9 14 00 00 	lea    rax,[rip+0x14e9]        # 0x140003058
   140001b6f:	48 89 85 78 cf ff ff 	mov    QWORD PTR [rbp-0x3088],rax
   140001b76:	48 8d 05 13 15 00 00 	lea    rax,[rip+0x1513]        # 0x140003090
   140001b7d:	48 89 85 68 cf ff ff 	mov    QWORD PTR [rbp-0x3098],rax
   140001b84:	48 8d 05 3d 15 00 00 	lea    rax,[rip+0x153d]        # 0x1400030c8
   140001b8b:	48 8b 40 00          	mov    rax,QWORD PTR [rax+0x0]
   140001b8f:	48 89 85 f0 cc ff ff 	mov    QWORD PTR [rbp-0x3310],rax
   140001b96:	48 8b 85 f0 cc ff ff 	mov    rax,QWORD PTR [rbp-0x3310]
   140001b9d:	48 89 85 60 cf ff ff 	mov    QWORD PTR [rbp-0x30a0],rax
   140001ba4:	48 83 ec 20          	sub    rsp,0x20
   140001ba8:	48 8b 8d f0 cc ff ff 	mov    rcx,QWORD PTR [rbp-0x3310]
   140001baf:	e8 7c 09 00 00       	call   0x140002530
   140001bb4:	48 83 c4 20          	add    rsp,0x20
   140001bb8:	48 89 85 e8 cc ff ff 	mov    QWORD PTR [rbp-0x3318],rax
   140001bbf:	48 8d 85 f8 ef ff ff 	lea    rax,[rbp-0x1008]
   140001bc6:	48 89 85 e0 cc ff ff 	mov    QWORD PTR [rbp-0x3320],rax
   140001bcd:	48 8d 85 f8 df ff ff 	lea    rax,[rbp-0x2008]
   140001bd4:	48 89 85 d8 cc ff ff 	mov    QWORD PTR [rbp-0x3328],rax
   140001bdb:	48 8d 85 f8 cf ff ff 	lea    rax,[rbp-0x3008]
   140001be2:	48 89 85 d0 cc ff ff 	mov    QWORD PTR [rbp-0x3330],rax
   140001be9:	48 8b 85 e0 cc ff ff 	mov    rax,QWORD PTR [rbp-0x3320]
   140001bf0:	48 89 85 58 cf ff ff 	mov    QWORD PTR [rbp-0x30a8],rax
   140001bf7:	48 8b 85 d8 cc ff ff 	mov    rax,QWORD PTR [rbp-0x3328]
   140001bfe:	48 89 85 50 cf ff ff 	mov    QWORD PTR [rbp-0x30b0],rax
   140001c05:	48 8b 85 d0 cc ff ff 	mov    rax,QWORD PTR [rbp-0x3330]
   140001c0c:	48 89 85 48 cf ff ff 	mov    QWORD PTR [rbp-0x30b8],rax
   140001c13:	48 8b 8d 58 cf ff ff 	mov    rcx,QWORD PTR [rbp-0x30a8]
   140001c1a:	48 8b 95 50 cf ff ff 	mov    rdx,QWORD PTR [rbp-0x30b0]
   140001c21:	4c 8b 85 48 cf ff ff 	mov    r8,QWORD PTR [rbp-0x30b8]
   140001c28:	45 31 c9             	xor    r9d,r9d
   140001c2b:	41 81 f9 20 00 00 00 	cmp    r9d,0x20
   140001c32:	0f 83 b3 00 00 00    	jae    0x140001ceb
   140001c38:	45 31 d2             	xor    r10d,r10d
   140001c3b:	41 81 fa 20 00 00 00 	cmp    r10d,0x20
   140001c42:	0f 83 9a 00 00 00    	jae    0x140001ce2
   140001c48:	66 0f ef db          	pxor   xmm3,xmm3
   140001c4c:	45 31 db             	xor    r11d,r11d
   140001c4f:	41 81 fb 20 00 00 00 	cmp    r11d,0x20
   140001c56:	0f 83 3d 00 00 00    	jae    0x140001c99
   140001c5c:	44 89 c8             	mov    eax,r9d
   140001c5f:	c1 e0 05             	shl    eax,0x5
   140001c62:	4c 01 d8             	add    rax,r11
   140001c65:	48 8d 04 81          	lea    rax,[rcx+rax*4]
   140001c69:	66 0f 6e 20          	movd   xmm4,DWORD PTR [rax]
   140001c6d:	66 0f 70 e4 00       	pshufd xmm4,xmm4,0x0
   140001c72:	44 89 d8             	mov    eax,r11d
   140001c75:	c1 e0 05             	shl    eax,0x5
   140001c78:	4c 01 d0             	add    rax,r10
   140001c7b:	48 8d 04 82          	lea    rax,[rdx+rax*4]
   140001c7f:	f3 0f 6f 10          	movdqu xmm2,XMMWORD PTR [rax]
   140001c83:	66 0f 6f c2          	movdqa xmm0,xmm2
   140001c87:	66 0f 38 40 c4       	pmulld xmm0,xmm4
   140001c8c:	66 0f fe d8          	paddd  xmm3,xmm0
   140001c90:	49 83 c3 01          	add    r11,0x1
   140001c94:	e9 b6 ff ff ff       	jmp    0x140001c4f
   140001c99:	44 89 c8             	mov    eax,r9d
   140001c9c:	c1 e0 05             	shl    eax,0x5
   140001c9f:	4c 01 d0             	add    rax,r10
   140001ca2:	49 8d 04 80          	lea    rax,[r8+rax*4]
   140001ca6:	66 41 0f 7e db       	movd   r11d,xmm3
   140001cab:	44 89 58 00          	mov    DWORD PTR [rax+0x0],r11d
   140001caf:	66 0f 70 c3 01       	pshufd xmm0,xmm3,0x1
   140001cb4:	66 41 0f 7e c3       	movd   r11d,xmm0
   140001cb9:	44 89 58 04          	mov    DWORD PTR [rax+0x4],r11d
   140001cbd:	66 0f 70 c3 02       	pshufd xmm0,xmm3,0x2
   140001cc2:	66 41 0f 7e c3       	movd   r11d,xmm0
   140001cc7:	44 89 58 08          	mov    DWORD PTR [rax+0x8],r11d
   140001ccb:	66 0f 70 c3 03       	pshufd xmm0,xmm3,0x3
   140001cd0:	66 41 0f 7e c3       	movd   r11d,xmm0
   140001cd5:	44 89 58 0c          	mov    DWORD PTR [rax+0xc],r11d
   140001cd9:	49 83 c2 04          	add    r10,0x4
   140001cdd:	e9 59 ff ff ff       	jmp    0x140001c3b
   140001ce2:	49 83 c1 01          	add    r9,0x1
   140001ce6:	e9 40 ff ff ff       	jmp    0x140001c2b
   140001ceb:	48 8b 85 d0 cc ff ff 	mov    rax,QWORD PTR [rbp-0x3330]
   140001cf2:	48 89 85 38 cf ff ff 	mov    QWORD PTR [rbp-0x30c8],rax
   140001cf9:	31 c0                	xor    eax,eax
   140001cfb:	48 89 85 30 cf ff ff 	mov    QWORD PTR [rbp-0x30d0],rax
   140001d02:	31 c0                	xor    eax,eax
   140001d04:	48 89 85 28 cf ff ff 	mov    QWORD PTR [rbp-0x30d8],rax
   140001d0b:	31 c0                	xor    eax,eax
   140001d0d:	48 89 85 20 cf ff ff 	mov    QWORD PTR [rbp-0x30e0],rax
   140001d14:	41 ba 20 00 00 00    	mov    r10d,0x20
   140001d1a:	48 8b 85 28 cf ff ff 	mov    rax,QWORD PTR [rbp-0x30d8]
   140001d21:	4c 39 d0             	cmp    rax,r10
   140001d24:	0f 8d 86 00 00 00    	jge    0x140001db0
   140001d2a:	4c 8b 95 20 cf ff ff 	mov    r10,QWORD PTR [rbp-0x30e0]
   140001d31:	48 8b 85 38 cf ff ff 	mov    rax,QWORD PTR [rbp-0x30c8]
   140001d38:	4a 8d 04 90          	lea    rax,[rax+r10*4]
   140001d3c:	8b 40 00             	mov    eax,DWORD PTR [rax+0x0]
   140001d3f:	48 63 c0             	movsxd rax,eax
   140001d42:	48 89 85 b0 cc ff ff 	mov    QWORD PTR [rbp-0x3350],rax
   140001d49:	48 8b 85 b0 cc ff ff 	mov    rax,QWORD PTR [rbp-0x3350]
   140001d50:	48 89 85 a8 cc ff ff 	mov    QWORD PTR [rbp-0x3358],rax
   140001d57:	4c 8b 95 a8 cc ff ff 	mov    r10,QWORD PTR [rbp-0x3358]
   140001d5e:	48 8b 85 30 cf ff ff 	mov    rax,QWORD PTR [rbp-0x30d0]
   140001d65:	4a 8d 04 10          	lea    rax,[rax+r10*1]
   140001d69:	48 89 85 30 cf ff ff 	mov    QWORD PTR [rbp-0x30d0],rax
   140001d70:	b8 20 00 00 00       	mov    eax,0x20
   140001d75:	48 89 85 a0 cc ff ff 	mov    QWORD PTR [rbp-0x3360],rax
   140001d7c:	4c 8b 95 a0 cc ff ff 	mov    r10,QWORD PTR [rbp-0x3360]
   140001d83:	48 8b 85 20 cf ff ff 	mov    rax,QWORD PTR [rbp-0x30e0]
   140001d8a:	4a 8d 04 10          	lea    rax,[rax+r10*1]
   140001d8e:	48 83 c0 01          	add    rax,0x1
   140001d92:	48 89 85 20 cf ff ff 	mov    QWORD PTR [rbp-0x30e0],rax
   140001d99:	48 8b 85 28 cf ff ff 	mov    rax,QWORD PTR [rbp-0x30d8]
   140001da0:	48 83 c0 01          	add    rax,0x1
   140001da4:	48 89 85 28 cf ff ff 	mov    QWORD PTR [rbp-0x30d8],rax
   140001dab:	e9 64 ff ff ff       	jmp    0x140001d14
   140001db0:	48 8d 05 31 13 00 00 	lea    rax,[rip+0x1331]        # 0x1400030e8
   140001db7:	48 89 85 10 cf ff ff 	mov    QWORD PTR [rbp-0x30f0],rax
   140001dbe:	48 8d 05 43 13 00 00 	lea    rax,[rip+0x1343]        # 0x140003108
   140001dc5:	48 89 85 00 cf ff ff 	mov    QWORD PTR [rbp-0x3100],rax
   140001dcc:	48 8d 05 55 13 00 00 	lea    rax,[rip+0x1355]        # 0x140003128
   140001dd3:	48 8b 40 00          	mov    rax,QWORD PTR [rax+0x0]
   140001dd7:	48 89 85 90 cc ff ff 	mov    QWORD PTR [rbp-0x3370],rax
   140001dde:	48 8b 85 90 cc ff ff 	mov    rax,QWORD PTR [rbp-0x3370]
   140001de5:	48 89 85 f8 ce ff ff 	mov    QWORD PTR [rbp-0x3108],rax
   140001dec:	48 83 ec 20          	sub    rsp,0x20
   140001df0:	b9 01 00 00 00       	mov    ecx,0x1
   140001df5:	e8 d6 07 00 00       	call   0x1400025d0
   140001dfa:	48 83 c4 20          	add    rsp,0x20
   140001dfe:	48 89 85 88 cc ff ff 	mov    QWORD PTR [rbp-0x3378],rax
   140001e05:	48 83 ec 20          	sub    rsp,0x20
   140001e09:	48 8b 8d f8 ce ff ff 	mov    rcx,QWORD PTR [rbp-0x3108]
   140001e10:	48 8b 95 88 cc ff ff 	mov    rdx,QWORD PTR [rbp-0x3378]
   140001e17:	e8 84 07 00 00       	call   0x1400025a0
   140001e1c:	48 83 c4 20          	add    rsp,0x20
   140001e20:	48 89 85 80 cc ff ff 	mov    QWORD PTR [rbp-0x3380],rax
   140001e27:	48 8b 85 30 cf ff ff 	mov    rax,QWORD PTR [rbp-0x30d0]
   140001e2e:	48 89 85 f0 ce ff ff 	mov    QWORD PTR [rbp-0x3110],rax
   140001e35:	48 83 ec 20          	sub    rsp,0x20
   140001e39:	48 8b 8d 30 cf ff ff 	mov    rcx,QWORD PTR [rbp-0x30d0]
   140001e40:	e8 ab f2 ff ff       	call   0x1400010f0
   140001e45:	48 83 c4 20          	add    rsp,0x20
   140001e49:	48 89 85 78 cc ff ff 	mov    QWORD PTR [rbp-0x3388],rax
   140001e50:	48 83 ec 20          	sub    rsp,0x20
   140001e54:	b9 0a 00 00 00       	mov    ecx,0xa
   140001e59:	e8 e2 06 00 00       	call   0x140002540
   140001e5e:	48 83 c4 20          	add    rsp,0x20
   140001e62:	48 89 85 70 cc ff ff 	mov    QWORD PTR [rbp-0x3390],rax
   140001e69:	48 8d 05 e8 12 00 00 	lea    rax,[rip+0x12e8]        # 0x140003158
   140001e70:	48 89 85 e0 ce ff ff 	mov    QWORD PTR [rbp-0x3120],rax
   140001e77:	48 8d 05 0a 13 00 00 	lea    rax,[rip+0x130a]        # 0x140003188
   140001e7e:	48 89 85 d0 ce ff ff 	mov    QWORD PTR [rbp-0x3130],rax
   140001e85:	48 8d 05 2c 13 00 00 	lea    rax,[rip+0x132c]        # 0x1400031b8
   140001e8c:	48 8b 40 00          	mov    rax,QWORD PTR [rax+0x0]
   140001e90:	48 89 85 68 cc ff ff 	mov    QWORD PTR [rbp-0x3398],rax
   140001e97:	48 8b 85 68 cc ff ff 	mov    rax,QWORD PTR [rbp-0x3398]
   140001e9e:	48 89 85 c8 ce ff ff 	mov    QWORD PTR [rbp-0x3138],rax
   140001ea5:	48 83 ec 20          	sub    rsp,0x20
   140001ea9:	48 8b 8d 68 cc ff ff 	mov    rcx,QWORD PTR [rbp-0x3398]
   140001eb0:	e8 7b 06 00 00       	call   0x140002530
   140001eb5:	48 83 c4 20          	add    rsp,0x20
   140001eb9:	48 89 85 60 cc ff ff 	mov    QWORD PTR [rbp-0x33a0],rax
   140001ec0:	48 8b 05 39 21 00 00 	mov    rax,QWORD PTR [rip+0x2139]        # 0x140004000
   140001ec7:	48 85 c0             	test   rax,rax
   140001eca:	0f 85 2e 00 00 00    	jne    0x140001efe
   140001ed0:	48 8d 05 29 21 00 00 	lea    rax,[rip+0x2129]        # 0x140004000
   140001ed7:	48 89 85 50 cc ff ff 	mov    QWORD PTR [rbp-0x33b0],rax
   140001ede:	48 83 ec 20          	sub    rsp,0x20
   140001ee2:	48 8b 8d 50 cc ff ff 	mov    rcx,QWORD PTR [rbp-0x33b0]
   140001ee9:	e8 02 07 00 00       	call   0x1400025f0
   140001eee:	48 83 c4 20          	add    rsp,0x20
   140001ef2:	48 89 85 48 cc ff ff 	mov    QWORD PTR [rbp-0x33b8],rax
   140001ef9:	e9 00 00 00 00       	jmp    0x140001efe
   140001efe:	31 c0                	xor    eax,eax
   140001f00:	48 89 85 b8 ce ff ff 	mov    QWORD PTR [rbp-0x3148],rax
   140001f07:	48 8d 85 b8 ce ff ff 	lea    rax,[rbp-0x3148]
   140001f0e:	48 89 85 40 cc ff ff 	mov    QWORD PTR [rbp-0x33c0],rax
   140001f15:	48 83 ec 20          	sub    rsp,0x20
   140001f19:	48 8b 8d 40 cc ff ff 	mov    rcx,QWORD PTR [rbp-0x33c0]
   140001f20:	e8 bb 06 00 00       	call   0x1400025e0
   140001f25:	48 83 c4 20          	add    rsp,0x20
   140001f29:	48 89 85 38 cc ff ff 	mov    QWORD PTR [rbp-0x33c8],rax
   140001f30:	48 8b 05 c9 20 00 00 	mov    rax,QWORD PTR [rip+0x20c9]        # 0x140004000
   140001f37:	48 85 c0             	test   rax,rax
   140001f3a:	0f 85 0e 00 00 00    	jne    0x140001f4e
   140001f40:	31 c0                	xor    eax,eax
   140001f42:	48 89 85 28 cc ff ff 	mov    QWORD PTR [rbp-0x33d8],rax
   140001f49:	e9 2f 00 00 00       	jmp    0x140001f7d
   140001f4e:	48 8b 85 b8 ce ff ff 	mov    rax,QWORD PTR [rbp-0x3148]
   140001f55:	48 69 c0 40 42 0f 00 	imul   rax,rax,0xf4240
   140001f5c:	4c 8b 15 9d 20 00 00 	mov    r10,QWORD PTR [rip+0x209d]        # 0x140004000
   140001f63:	48 99                	cqo
   140001f65:	49 f7 fa             	idiv   r10
   140001f68:	48 89 85 18 cc ff ff 	mov    QWORD PTR [rbp-0x33e8],rax
   140001f6f:	48 8b 85 18 cc ff ff 	mov    rax,QWORD PTR [rbp-0x33e8]
   140001f76:	48 89 85 28 cc ff ff 	mov    QWORD PTR [rbp-0x33d8],rax
   140001f7d:	48 8b 85 28 cc ff ff 	mov    rax,QWORD PTR [rbp-0x33d8]
   140001f84:	48 89 85 c0 ce ff ff 	mov    QWORD PTR [rbp-0x3140],rax
   140001f8b:	31 c0                	xor    eax,eax
   140001f8d:	48 89 85 b0 ce ff ff 	mov    QWORD PTR [rbp-0x3150],rax
   140001f94:	31 c0                	xor    eax,eax
   140001f96:	48 89 85 a8 ce ff ff 	mov    QWORD PTR [rbp-0x3158],rax
   140001f9d:	4c 8b 55 f8          	mov    r10,QWORD PTR [rbp-0x8]
   140001fa1:	48 8b 85 a8 ce ff ff 	mov    rax,QWORD PTR [rbp-0x3158]
   140001fa8:	4c 39 d0             	cmp    rax,r10
   140001fab:	0f 8d df 01 00 00    	jge    0x140002190
   140001fb1:	48 8d 85 f8 ef ff ff 	lea    rax,[rbp-0x1008]
   140001fb8:	48 89 85 08 cc ff ff 	mov    QWORD PTR [rbp-0x33f8],rax
   140001fbf:	48 8d 85 f8 df ff ff 	lea    rax,[rbp-0x2008]
   140001fc6:	48 89 85 00 cc ff ff 	mov    QWORD PTR [rbp-0x3400],rax
   140001fcd:	48 8d 85 f8 cf ff ff 	lea    rax,[rbp-0x3008]
   140001fd4:	48 89 85 f8 cb ff ff 	mov    QWORD PTR [rbp-0x3408],rax
   140001fdb:	48 8b 85 08 cc ff ff 	mov    rax,QWORD PTR [rbp-0x33f8]
   140001fe2:	48 89 85 a0 ce ff ff 	mov    QWORD PTR [rbp-0x3160],rax
   140001fe9:	48 8b 85 00 cc ff ff 	mov    rax,QWORD PTR [rbp-0x3400]
   140001ff0:	48 89 85 98 ce ff ff 	mov    QWORD PTR [rbp-0x3168],rax
   140001ff7:	48 8b 85 f8 cb ff ff 	mov    rax,QWORD PTR [rbp-0x3408]
   140001ffe:	48 89 85 90 ce ff ff 	mov    QWORD PTR [rbp-0x3170],rax
   140002005:	48 8b 8d a0 ce ff ff 	mov    rcx,QWORD PTR [rbp-0x3160]
   14000200c:	48 8b 95 98 ce ff ff 	mov    rdx,QWORD PTR [rbp-0x3168]
   140002013:	4c 8b 85 90 ce ff ff 	mov    r8,QWORD PTR [rbp-0x3170]
   14000201a:	45 31 c9             	xor    r9d,r9d
   14000201d:	41 81 f9 20 00 00 00 	cmp    r9d,0x20
   140002024:	0f 83 b3 00 00 00    	jae    0x1400020dd
   14000202a:	45 31 d2             	xor    r10d,r10d
   14000202d:	41 81 fa 20 00 00 00 	cmp    r10d,0x20
   140002034:	0f 83 9a 00 00 00    	jae    0x1400020d4
   14000203a:	66 0f ef db          	pxor   xmm3,xmm3
   14000203e:	45 31 db             	xor    r11d,r11d
   140002041:	41 81 fb 20 00 00 00 	cmp    r11d,0x20
   140002048:	0f 83 3d 00 00 00    	jae    0x14000208b
   14000204e:	44 89 c8             	mov    eax,r9d
   140002051:	c1 e0 05             	shl    eax,0x5
   140002054:	4c 01 d8             	add    rax,r11
   140002057:	48 8d 04 81          	lea    rax,[rcx+rax*4]
   14000205b:	66 0f 6e 20          	movd   xmm4,DWORD PTR [rax]
   14000205f:	66 0f 70 e4 00       	pshufd xmm4,xmm4,0x0
   140002064:	44 89 d8             	mov    eax,r11d
   140002067:	c1 e0 05             	shl    eax,0x5
   14000206a:	4c 01 d0             	add    rax,r10
   14000206d:	48 8d 04 82          	lea    rax,[rdx+rax*4]
   140002071:	f3 0f 6f 10          	movdqu xmm2,XMMWORD PTR [rax]
   140002075:	66 0f 6f c2          	movdqa xmm0,xmm2
   140002079:	66 0f 38 40 c4       	pmulld xmm0,xmm4
   14000207e:	66 0f fe d8          	paddd  xmm3,xmm0
   140002082:	49 83 c3 01          	add    r11,0x1
   140002086:	e9 b6 ff ff ff       	jmp    0x140002041
   14000208b:	44 89 c8             	mov    eax,r9d
   14000208e:	c1 e0 05             	shl    eax,0x5
   140002091:	4c 01 d0             	add    rax,r10
   140002094:	49 8d 04 80          	lea    rax,[r8+rax*4]
   140002098:	66 41 0f 7e db       	movd   r11d,xmm3
   14000209d:	44 89 58 00          	mov    DWORD PTR [rax+0x0],r11d
   1400020a1:	66 0f 70 c3 01       	pshufd xmm0,xmm3,0x1
   1400020a6:	66 41 0f 7e c3       	movd   r11d,xmm0
   1400020ab:	44 89 58 04          	mov    DWORD PTR [rax+0x4],r11d
   1400020af:	66 0f 70 c3 02       	pshufd xmm0,xmm3,0x2
   1400020b4:	66 41 0f 7e c3       	movd   r11d,xmm0
   1400020b9:	44 89 58 08          	mov    DWORD PTR [rax+0x8],r11d
   1400020bd:	66 0f 70 c3 03       	pshufd xmm0,xmm3,0x3
   1400020c2:	66 41 0f 7e c3       	movd   r11d,xmm0
   1400020c7:	44 89 58 0c          	mov    DWORD PTR [rax+0xc],r11d
   1400020cb:	49 83 c2 04          	add    r10,0x4
   1400020cf:	e9 59 ff ff ff       	jmp    0x14000202d
   1400020d4:	49 83 c1 01          	add    r9,0x1
   1400020d8:	e9 40 ff ff ff       	jmp    0x14000201d
   1400020dd:	48 8b 85 f8 cb ff ff 	mov    rax,QWORD PTR [rbp-0x3408]
   1400020e4:	48 89 85 88 ce ff ff 	mov    QWORD PTR [rbp-0x3178],rax
   1400020eb:	31 ff                	xor    edi,edi
   1400020ed:	31 db                	xor    ebx,ebx
   1400020ef:	31 f6                	xor    esi,esi
   1400020f1:	41 ba 20 00 00 00    	mov    r10d,0x20
   1400020f7:	4c 39 d3             	cmp    rbx,r10
   1400020fa:	0f 8d 64 00 00 00    	jge    0x140002164
   140002100:	4c 8b d6             	mov    r10,rsi
   140002103:	48 8b 85 88 ce ff ff 	mov    rax,QWORD PTR [rbp-0x3178]
   14000210a:	4a 8d 04 90          	lea    rax,[rax+r10*4]
   14000210e:	8b 40 00             	mov    eax,DWORD PTR [rax+0x0]
   140002111:	48 63 c0             	movsxd rax,eax
   140002114:	48 89 85 d8 cb ff ff 	mov    QWORD PTR [rbp-0x3428],rax
   14000211b:	48 8b 85 d8 cb ff ff 	mov    rax,QWORD PTR [rbp-0x3428]
   140002122:	48 89 85 d0 cb ff ff 	mov    QWORD PTR [rbp-0x3430],rax
   140002129:	4c 8b 95 d0 cb ff ff 	mov    r10,QWORD PTR [rbp-0x3430]
   140002130:	48 8b c7             	mov    rax,rdi
   140002133:	4a 8d 04 10          	lea    rax,[rax+r10*1]
   140002137:	48 8b f8             	mov    rdi,rax
   14000213a:	b8 20 00 00 00       	mov    eax,0x20
   14000213f:	48 89 85 c8 cb ff ff 	mov    QWORD PTR [rbp-0x3438],rax
   140002146:	4c 8b 95 c8 cb ff ff 	mov    r10,QWORD PTR [rbp-0x3438]
   14000214d:	48 8b c6             	mov    rax,rsi
   140002150:	4a 8d 04 10          	lea    rax,[rax+r10*1]
   140002154:	48 83 c0 01          	add    rax,0x1
   140002158:	48 8b f0             	mov    rsi,rax
   14000215b:	48 83 c3 01          	add    rbx,0x1
   14000215f:	e9 8d ff ff ff       	jmp    0x1400020f1
   140002164:	4c 8b d7             	mov    r10,rdi
   140002167:	48 8b 85 b0 ce ff ff 	mov    rax,QWORD PTR [rbp-0x3150]
   14000216e:	4a 8d 04 10          	lea    rax,[rax+r10*1]
   140002172:	48 89 85 b0 ce ff ff 	mov    QWORD PTR [rbp-0x3150],rax
   140002179:	48 8b 85 a8 ce ff ff 	mov    rax,QWORD PTR [rbp-0x3158]
   140002180:	48 83 c0 01          	add    rax,0x1
   140002184:	48 89 85 a8 ce ff ff 	mov    QWORD PTR [rbp-0x3158],rax
   14000218b:	e9 0d fe ff ff       	jmp    0x140001f9d
   140002190:	48 8b 05 69 1e 00 00 	mov    rax,QWORD PTR [rip+0x1e69]        # 0x140004000
   140002197:	48 85 c0             	test   rax,rax
   14000219a:	0f 85 2e 00 00 00    	jne    0x1400021ce
   1400021a0:	48 8d 05 59 1e 00 00 	lea    rax,[rip+0x1e59]        # 0x140004000
   1400021a7:	48 89 85 b0 cb ff ff 	mov    QWORD PTR [rbp-0x3450],rax
   1400021ae:	48 83 ec 20          	sub    rsp,0x20
   1400021b2:	48 8b 8d b0 cb ff ff 	mov    rcx,QWORD PTR [rbp-0x3450]
   1400021b9:	e8 32 04 00 00       	call   0x1400025f0
   1400021be:	48 83 c4 20          	add    rsp,0x20
   1400021c2:	48 89 85 a8 cb ff ff 	mov    QWORD PTR [rbp-0x3458],rax
   1400021c9:	e9 00 00 00 00       	jmp    0x1400021ce
   1400021ce:	31 c0                	xor    eax,eax
   1400021d0:	48 89 85 60 ce ff ff 	mov    QWORD PTR [rbp-0x31a0],rax
   1400021d7:	48 8d 85 60 ce ff ff 	lea    rax,[rbp-0x31a0]
   1400021de:	48 89 85 a0 cb ff ff 	mov    QWORD PTR [rbp-0x3460],rax
   1400021e5:	48 83 ec 20          	sub    rsp,0x20
   1400021e9:	48 8b 8d a0 cb ff ff 	mov    rcx,QWORD PTR [rbp-0x3460]
   1400021f0:	e8 eb 03 00 00       	call   0x1400025e0
   1400021f5:	48 83 c4 20          	add    rsp,0x20
   1400021f9:	48 89 85 98 cb ff ff 	mov    QWORD PTR [rbp-0x3468],rax
   140002200:	48 8b 05 f9 1d 00 00 	mov    rax,QWORD PTR [rip+0x1df9]        # 0x140004000
   140002207:	48 85 c0             	test   rax,rax
   14000220a:	0f 85 0e 00 00 00    	jne    0x14000221e
   140002210:	31 c0                	xor    eax,eax
   140002212:	48 89 85 88 cb ff ff 	mov    QWORD PTR [rbp-0x3478],rax
   140002219:	e9 2f 00 00 00       	jmp    0x14000224d
   14000221e:	48 8b 85 60 ce ff ff 	mov    rax,QWORD PTR [rbp-0x31a0]
   140002225:	48 69 c0 40 42 0f 00 	imul   rax,rax,0xf4240
   14000222c:	4c 8b 15 cd 1d 00 00 	mov    r10,QWORD PTR [rip+0x1dcd]        # 0x140004000
   140002233:	48 99                	cqo
   140002235:	49 f7 fa             	idiv   r10
   140002238:	48 89 85 78 cb ff ff 	mov    QWORD PTR [rbp-0x3488],rax
   14000223f:	48 8b 85 78 cb ff ff 	mov    rax,QWORD PTR [rbp-0x3488]
   140002246:	48 89 85 88 cb ff ff 	mov    QWORD PTR [rbp-0x3478],rax
   14000224d:	4c 8b 95 c0 ce ff ff 	mov    r10,QWORD PTR [rbp-0x3140]
   140002254:	48 8b 85 88 cb ff ff 	mov    rax,QWORD PTR [rbp-0x3478]
   14000225b:	4c 29 d0             	sub    rax,r10
   14000225e:	48 89 85 68 ce ff ff 	mov    QWORD PTR [rbp-0x3198],rax
   140002265:	48 8d 05 6c 0f 00 00 	lea    rax,[rip+0xf6c]        # 0x1400031d8
   14000226c:	48 89 85 50 ce ff ff 	mov    QWORD PTR [rbp-0x31b0],rax
   140002273:	48 8d 05 7e 0f 00 00 	lea    rax,[rip+0xf7e]        # 0x1400031f8
   14000227a:	48 89 85 40 ce ff ff 	mov    QWORD PTR [rbp-0x31c0],rax
   140002281:	48 8d 05 90 0f 00 00 	lea    rax,[rip+0xf90]        # 0x140003218
   140002288:	48 8b 40 00          	mov    rax,QWORD PTR [rax+0x0]
   14000228c:	48 89 85 70 cb ff ff 	mov    QWORD PTR [rbp-0x3490],rax
   140002293:	48 8b 85 70 cb ff ff 	mov    rax,QWORD PTR [rbp-0x3490]
   14000229a:	48 89 85 38 ce ff ff 	mov    QWORD PTR [rbp-0x31c8],rax
   1400022a1:	48 83 ec 20          	sub    rsp,0x20
   1400022a5:	b9 01 00 00 00       	mov    ecx,0x1
   1400022aa:	e8 21 03 00 00       	call   0x1400025d0
   1400022af:	48 83 c4 20          	add    rsp,0x20
   1400022b3:	48 89 85 68 cb ff ff 	mov    QWORD PTR [rbp-0x3498],rax
   1400022ba:	48 83 ec 20          	sub    rsp,0x20
   1400022be:	48 8b 8d 38 ce ff ff 	mov    rcx,QWORD PTR [rbp-0x31c8]
   1400022c5:	48 8b 95 68 cb ff ff 	mov    rdx,QWORD PTR [rbp-0x3498]
   1400022cc:	e8 cf 02 00 00       	call   0x1400025a0
   1400022d1:	48 83 c4 20          	add    rsp,0x20
   1400022d5:	48 89 85 60 cb ff ff 	mov    QWORD PTR [rbp-0x34a0],rax
   1400022dc:	48 83 ec 20          	sub    rsp,0x20
   1400022e0:	48 8b 8d b0 ce ff ff 	mov    rcx,QWORD PTR [rbp-0x3150]
   1400022e7:	e8 04 ee ff ff       	call   0x1400010f0
   1400022ec:	48 83 c4 20          	add    rsp,0x20
   1400022f0:	48 89 85 58 cb ff ff 	mov    QWORD PTR [rbp-0x34a8],rax
   1400022f7:	48 83 ec 20          	sub    rsp,0x20
   1400022fb:	b9 0a 00 00 00       	mov    ecx,0xa
   140002300:	e8 3b 02 00 00       	call   0x140002540
   140002305:	48 83 c4 20          	add    rsp,0x20
   140002309:	48 89 85 50 cb ff ff 	mov    QWORD PTR [rbp-0x34b0],rax
   140002310:	48 8d 05 19 0f 00 00 	lea    rax,[rip+0xf19]        # 0x140003230
   140002317:	48 89 85 20 ce ff ff 	mov    QWORD PTR [rbp-0x31e0],rax
   14000231e:	48 8d 05 23 0f 00 00 	lea    rax,[rip+0xf23]        # 0x140003248
   140002325:	48 89 85 10 ce ff ff 	mov    QWORD PTR [rbp-0x31f0],rax
   14000232c:	48 8d 05 2d 0f 00 00 	lea    rax,[rip+0xf2d]        # 0x140003260
   140002333:	48 8b 40 00          	mov    rax,QWORD PTR [rax+0x0]
   140002337:	48 89 85 48 cb ff ff 	mov    QWORD PTR [rbp-0x34b8],rax
   14000233e:	48 8b 85 48 cb ff ff 	mov    rax,QWORD PTR [rbp-0x34b8]
   140002345:	48 89 85 08 ce ff ff 	mov    QWORD PTR [rbp-0x31f8],rax
   14000234c:	48 83 ec 20          	sub    rsp,0x20
   140002350:	b9 01 00 00 00       	mov    ecx,0x1
   140002355:	e8 76 02 00 00       	call   0x1400025d0
   14000235a:	48 83 c4 20          	add    rsp,0x20
   14000235e:	48 89 85 40 cb ff ff 	mov    QWORD PTR [rbp-0x34c0],rax
   140002365:	48 83 ec 20          	sub    rsp,0x20
   140002369:	48 8b 8d 08 ce ff ff 	mov    rcx,QWORD PTR [rbp-0x31f8]
   140002370:	48 8b 95 40 cb ff ff 	mov    rdx,QWORD PTR [rbp-0x34c0]
   140002377:	e8 24 02 00 00       	call   0x1400025a0
   14000237c:	48 83 c4 20          	add    rsp,0x20
   140002380:	48 89 85 38 cb ff ff 	mov    QWORD PTR [rbp-0x34c8],rax
   140002387:	48 83 ec 20          	sub    rsp,0x20
   14000238b:	48 8b 8d 68 ce ff ff 	mov    rcx,QWORD PTR [rbp-0x3198]
   140002392:	e8 59 ed ff ff       	call   0x1400010f0
   140002397:	48 83 c4 20          	add    rsp,0x20
   14000239b:	48 89 85 30 cb ff ff 	mov    QWORD PTR [rbp-0x34d0],rax
   1400023a2:	48 8d 05 cf 0e 00 00 	lea    rax,[rip+0xecf]        # 0x140003278
   1400023a9:	48 89 85 f8 cd ff ff 	mov    QWORD PTR [rbp-0x3208],rax
   1400023b0:	48 8d 05 d9 0e 00 00 	lea    rax,[rip+0xed9]        # 0x140003290
   1400023b7:	48 8b 40 00          	mov    rax,QWORD PTR [rax+0x0]
   1400023bb:	48 89 85 28 cb ff ff 	mov    QWORD PTR [rbp-0x34d8],rax
   1400023c2:	48 8b 85 28 cb ff ff 	mov    rax,QWORD PTR [rbp-0x34d8]
   1400023c9:	48 89 85 f0 cd ff ff 	mov    QWORD PTR [rbp-0x3210],rax
   1400023d0:	48 83 ec 20          	sub    rsp,0x20
   1400023d4:	48 8b 8d 28 cb ff ff 	mov    rcx,QWORD PTR [rbp-0x34d8]
   1400023db:	e8 50 01 00 00       	call   0x140002530
   1400023e0:	48 83 c4 20          	add    rsp,0x20
   1400023e4:	48 89 85 20 cb ff ff 	mov    QWORD PTR [rbp-0x34e0],rax
   1400023eb:	4c 8b 55 f8          	mov    r10,QWORD PTR [rbp-0x8]
   1400023ef:	48 8b 85 68 ce ff ff 	mov    rax,QWORD PTR [rbp-0x3198]
   1400023f6:	48 99                	cqo
   1400023f8:	49 f7 fa             	idiv   r10
   1400023fb:	48 89 85 e8 cd ff ff 	mov    QWORD PTR [rbp-0x3218],rax
   140002402:	48 8d 05 a7 0e 00 00 	lea    rax,[rip+0xea7]        # 0x1400032b0
   140002409:	48 89 85 d8 cd ff ff 	mov    QWORD PTR [rbp-0x3228],rax
   140002410:	48 8d 05 b9 0e 00 00 	lea    rax,[rip+0xeb9]        # 0x1400032d0
   140002417:	48 89 85 c8 cd ff ff 	mov    QWORD PTR [rbp-0x3238],rax
   14000241e:	48 8d 05 cb 0e 00 00 	lea    rax,[rip+0xecb]        # 0x1400032f0
   140002425:	48 8b 40 00          	mov    rax,QWORD PTR [rax+0x0]
   140002429:	48 89 85 18 cb ff ff 	mov    QWORD PTR [rbp-0x34e8],rax
   140002430:	48 8b 85 18 cb ff ff 	mov    rax,QWORD PTR [rbp-0x34e8]
   140002437:	48 89 85 c0 cd ff ff 	mov    QWORD PTR [rbp-0x3240],rax
   14000243e:	48 83 ec 20          	sub    rsp,0x20
   140002442:	b9 01 00 00 00       	mov    ecx,0x1
   140002447:	e8 84 01 00 00       	call   0x1400025d0
   14000244c:	48 83 c4 20          	add    rsp,0x20
   140002450:	48 89 85 10 cb ff ff 	mov    QWORD PTR [rbp-0x34f0],rax
   140002457:	48 83 ec 20          	sub    rsp,0x20
   14000245b:	48 8b 8d c0 cd ff ff 	mov    rcx,QWORD PTR [rbp-0x3240]
   140002462:	48 8b 95 10 cb ff ff 	mov    rdx,QWORD PTR [rbp-0x34f0]
   140002469:	e8 32 01 00 00       	call   0x1400025a0
   14000246e:	48 83 c4 20          	add    rsp,0x20
   140002472:	48 89 85 08 cb ff ff 	mov    QWORD PTR [rbp-0x34f8],rax
   140002479:	48 83 ec 20          	sub    rsp,0x20
   14000247d:	48 8b 8d e8 cd ff ff 	mov    rcx,QWORD PTR [rbp-0x3218]
   140002484:	e8 67 ec ff ff       	call   0x1400010f0
   140002489:	48 83 c4 20          	add    rsp,0x20
   14000248d:	48 89 85 00 cb ff ff 	mov    QWORD PTR [rbp-0x3500],rax
   140002494:	48 8d 05 6d 0e 00 00 	lea    rax,[rip+0xe6d]        # 0x140003308
   14000249b:	48 89 85 b0 cd ff ff 	mov    QWORD PTR [rbp-0x3250],rax
   1400024a2:	48 8d 05 77 0e 00 00 	lea    rax,[rip+0xe77]        # 0x140003320
   1400024a9:	48 8b 40 00          	mov    rax,QWORD PTR [rax+0x0]
   1400024ad:	48 89 85 f8 ca ff ff 	mov    QWORD PTR [rbp-0x3508],rax
   1400024b4:	48 8b 85 f8 ca ff ff 	mov    rax,QWORD PTR [rbp-0x3508]
   1400024bb:	48 89 85 a8 cd ff ff 	mov    QWORD PTR [rbp-0x3258],rax
   1400024c2:	48 83 ec 20          	sub    rsp,0x20
   1400024c6:	48 8b 8d f8 ca ff ff 	mov    rcx,QWORD PTR [rbp-0x3508]
   1400024cd:	e8 5e 00 00 00       	call   0x140002530
   1400024d2:	48 83 c4 20          	add    rsp,0x20
   1400024d6:	48 89 85 f0 ca ff ff 	mov    QWORD PTR [rbp-0x3510],rax
   1400024dd:	31 c0                	xor    eax,eax
   1400024df:	e9 00 00 00 00       	jmp    0x1400024e4
   1400024e4:	48 8b bd b8 ca ff ff 	mov    rdi,QWORD PTR [rbp-0x3548]
   1400024eb:	48 8b b5 c0 ca ff ff 	mov    rsi,QWORD PTR [rbp-0x3540]
   1400024f2:	48 8b 9d c8 ca ff ff 	mov    rbx,QWORD PTR [rbp-0x3538]
   1400024f9:	4c 8b bd d0 ca ff ff 	mov    r15,QWORD PTR [rbp-0x3530]
   140002500:	4c 8b b5 d8 ca ff ff 	mov    r14,QWORD PTR [rbp-0x3528]
   140002507:	4c 8b ad e0 ca ff ff 	mov    r13,QWORD PTR [rbp-0x3520]
   14000250e:	4c 8b a5 e8 ca ff ff 	mov    r12,QWORD PTR [rbp-0x3518]
   140002515:	48 8b e5             	mov    rsp,rbp
   140002518:	5d                   	pop    rbp
   140002519:	c3                   	ret
   14000251a:	00 00                	add    BYTE PTR [rax],al
   14000251c:	00 00                	add    BYTE PTR [rax],al
   14000251e:	00 00                	add    BYTE PTR [rax],al
   140002520:	ff 25 9a 0f 00 00    	jmp    QWORD PTR [rip+0xf9a]        # 0x1400034c0
	...
   14000252e:	00 00                	add    BYTE PTR [rax],al
   140002530:	ff 25 aa 0f 00 00    	jmp    QWORD PTR [rip+0xfaa]        # 0x1400034e0
	...
   14000253e:	00 00                	add    BYTE PTR [rax],al
   140002540:	ff 25 a2 0f 00 00    	jmp    QWORD PTR [rip+0xfa2]        # 0x1400034e8
	...
   14000254e:	00 00                	add    BYTE PTR [rax],al
   140002550:	ff 25 9a 0f 00 00    	jmp    QWORD PTR [rip+0xf9a]        # 0x1400034f0
	...
   14000255e:	00 00                	add    BYTE PTR [rax],al
   140002560:	ff 25 92 0f 00 00    	jmp    QWORD PTR [rip+0xf92]        # 0x1400034f8
	...
   14000256e:	00 00                	add    BYTE PTR [rax],al
   140002570:	ff 25 8a 0f 00 00    	jmp    QWORD PTR [rip+0xf8a]        # 0x140003500
	...
   14000257e:	00 00                	add    BYTE PTR [rax],al
   140002580:	ff 25 82 0f 00 00    	jmp    QWORD PTR [rip+0xf82]        # 0x140003508
	...
   14000258e:	00 00                	add    BYTE PTR [rax],al
   140002590:	ff 25 7a 0f 00 00    	jmp    QWORD PTR [rip+0xf7a]        # 0x140003510
	...
   14000259e:	00 00                	add    BYTE PTR [rax],al
   1400025a0:	ff 25 72 0f 00 00    	jmp    QWORD PTR [rip+0xf72]        # 0x140003518
	...
   1400025ae:	00 00                	add    BYTE PTR [rax],al
   1400025b0:	ff 25 6a 0f 00 00    	jmp    QWORD PTR [rip+0xf6a]        # 0x140003520
	...
   1400025be:	00 00                	add    BYTE PTR [rax],al
   1400025c0:	ff 25 62 0f 00 00    	jmp    QWORD PTR [rip+0xf62]        # 0x140003528
	...
   1400025ce:	00 00                	add    BYTE PTR [rax],al
   1400025d0:	ff 25 5a 0f 00 00    	jmp    QWORD PTR [rip+0xf5a]        # 0x140003530
	...
   1400025de:	00 00                	add    BYTE PTR [rax],al
   1400025e0:	ff 25 e2 0e 00 00    	jmp    QWORD PTR [rip+0xee2]        # 0x1400034c8
	...
   1400025ee:	00 00                	add    BYTE PTR [rax],al
   1400025f0:	ff 25 da 0e 00 00    	jmp    QWORD PTR [rip+0xeda]        # 0x1400034d0

